; Function Attrs: mustprogress uwtable
define hidden void @_ZN5zxing6qrcode22DecodedBitStreamParser6appendERNSt7__cxx1112basic_stringIcSt11char_traitsIcESaIcEEERKS7_RNS_12ErrorHandlerE(ptr noundef nonnull readnone align 8 captures(none) dereferenceable(32) %0, ptr noundef nonnull align 8 dereferenceable(32) %1, ptr noundef nonnull readonly align 8 captures(none) dereferenceable(32) %2, ptr noundef nonnull align 8 dereferenceable(48) %3) local_unnamed_addr #0 align 2 personality ptr @__gxx_personality_v0 {
  %5 = load ptr, ptr %2, align 8, !tbaa !3
  %6 = getelementptr inbounds nuw i8, ptr %2, i64 8
  %7 = load i64, ptr %6, align 8, !tbaa !11
  %8 = load ptr, ptr %3, align 8, !tbaa !12
  %9 = getelementptr inbounds nuw i8, ptr %8, i64 16
  %10 = load ptr, ptr %9, align 8
  %11 = tail call noundef i32 %10(ptr noundef nonnull align 8 dereferenceable(48) %3)
  %12 = icmp ne i32 %11, 0
  %13 = icmp eq ptr %5, null
  %or.cond.i = or i1 %13, %12
  br i1 %or.cond.i, label %_ZN5zxing6qrcode22DecodedBitStreamParser6appendERNSt7__cxx1112basic_stringIcSt11char_traitsIcESaIcEEEPKcmRNS_12ErrorHandlerE.exit, label %14

14:                                               ; preds = %4
  %15 = getelementptr inbounds nuw i8, ptr %1, i64 8
  %16 = load i64, ptr %15, align 8, !tbaa !11
  %17 = sub i64 4611686018427387903, %16
  %18 = icmp ult i64 %17, %7
  br i1 %18, label %19, label %_ZNSt7__cxx1112basic_stringIcSt11char_traitsIcESaIcEE6appendEPKcm.exit.i

19:                                               ; preds = %14
  tail call void @_ZSt20__throw_length_errorPKc(ptr noundef nonnull @.str.11) #15
  unreachable

_ZNSt7__cxx1112basic_stringIcSt11char_traitsIcESaIcEE6appendEPKcm.exit.i: ; preds = %14
  %20 = tail call noundef nonnull align 8 dereferenceable(32) ptr @_ZNSt7__cxx1112basic_stringIcSt11char_traitsIcESaIcEE9_M_appendEPKcm(ptr noundef nonnull align 8 dereferenceable(32) %1, ptr noundef nonnull %5, i64 noundef %7)
  br label %_ZN5zxing6qrcode22DecodedBitStreamParser6appendERNSt7__cxx1112basic_stringIcSt11char_traitsIcESaIcEEEPKcmRNS_12ErrorHandlerE.exit

_ZN5zxing6qrcode22DecodedBitStreamParser6appendERNSt7__cxx1112basic_stringIcSt11char_traitsIcESaIcEEEPKcmRNS_12ErrorHandlerE.exit: ; preds = %4, %_ZNSt7__cxx1112basic_stringIcSt11char_traitsIcESaIcEE6appendEPKcm.exit.i
  ret void
}